; Function Attrs: mustprogress nofree norecurse nosync nounwind willreturn memory(read, argmem: readwrite, inaccessiblemem: none) uwtable
define dso_local void @_ZN4Json5Value5beginEv(ptr dead_on_unwind noalias nocapture writable writeonly sret(%"class.Json::ValueIterator") align 8 %0, ptr nocapture noundef nonnull readonly align 8 dereferenceable(40) %1) local_unnamed_addr #11 align 2 {
  %3 = getelementptr inbounds i8, ptr %1, i64 8
  %4 = load i16, ptr %3, align 8
  %5 = and i16 %4, 254
  %switch = icmp eq i16 %5, 6
  br i1 %switch, label %6, label %12

6:                                                ; preds = %2
  %7 = load ptr, ptr %1, align 8
  %.not = icmp eq ptr %7, null
  br i1 %.not, label %12, label %8

8:                                                ; preds = %6
  %9 = getelementptr inbounds i8, ptr %7, i64 24
  %10 = load ptr, ptr %9, align 8
  %11 = ptrtoint ptr %10 to i64
  br label %12

12:                                               ; preds = %6, %2, %8
  %storemerge = phi i64 [ %11, %8 ], [ 0, %2 ], [ 0, %6 ]
  %.sink = phi i8 [ 0, %8 ], [ 1, %2 ], [ 1, %6 ]
  store i64 %storemerge, ptr %0, align 8
  %13 = getelementptr inbounds i8, ptr %0, i64 8
  store i8 %.sink, ptr %13, align 8
  ret void
}